
a.out:     file format elf64-x86-64


Disassembly of section .init:

0000000000400718 <_init>:
  400718:	48 83 ec 08          	sub    $0x8,%rsp
  40071c:	48 8b 05 d5 08 20 00 	mov    0x2008d5(%rip),%rax        # 600ff8 <_DYNAMIC+0x1e0>
  400723:	48 85 c0             	test   %rax,%rax
  400726:	74 05                	je     40072d <_init+0x15>
  400728:	e8 b3 00 00 00       	callq  4007e0 <_ZSt4endlIcSt11char_traitsIcEERSt13basic_ostreamIT_T0_ES6_@plt+0x10>
  40072d:	48 83 c4 08          	add    $0x8,%rsp
  400731:	c3                   	retq   

Disassembly of section .plt:

0000000000400740 <_ZNSolsEd@plt-0x10>:
  400740:	ff 35 c2 08 20 00    	pushq  0x2008c2(%rip)        # 601008 <_GLOBAL_OFFSET_TABLE_+0x8>
  400746:	ff 25 c4 08 20 00    	jmpq   *0x2008c4(%rip)        # 601010 <_GLOBAL_OFFSET_TABLE_+0x10>
  40074c:	0f 1f 40 00          	nopl   0x0(%rax)

0000000000400750 <_ZNSolsEd@plt>:
  400750:	ff 25 c2 08 20 00    	jmpq   *0x2008c2(%rip)        # 601018 <_GLOBAL_OFFSET_TABLE_+0x18>
  400756:	68 00 00 00 00       	pushq  $0x0
  40075b:	e9 e0 ff ff ff       	jmpq   400740 <_init+0x28>

0000000000400760 <_ZNSolsEi@plt>:
  400760:	ff 25 ba 08 20 00    	jmpq   *0x2008ba(%rip)        # 601020 <_GLOBAL_OFFSET_TABLE_+0x20>
  400766:	68 01 00 00 00       	pushq  $0x1
  40076b:	e9 d0 ff ff ff       	jmpq   400740 <_init+0x28>

0000000000400770 <_ZNSt8ios_base4InitC1Ev@plt>:
  400770:	ff 25 b2 08 20 00    	jmpq   *0x2008b2(%rip)        # 601028 <_GLOBAL_OFFSET_TABLE_+0x28>
  400776:	68 02 00 00 00       	pushq  $0x2
  40077b:	e9 c0 ff ff ff       	jmpq   400740 <_init+0x28>

0000000000400780 <__libc_start_main@plt>:
  400780:	ff 25 aa 08 20 00    	jmpq   *0x2008aa(%rip)        # 601030 <_GLOBAL_OFFSET_TABLE_+0x30>
  400786:	68 03 00 00 00       	pushq  $0x3
  40078b:	e9 b0 ff ff ff       	jmpq   400740 <_init+0x28>

0000000000400790 <__cxa_atexit@plt>:
  400790:	ff 25 a2 08 20 00    	jmpq   *0x2008a2(%rip)        # 601038 <_GLOBAL_OFFSET_TABLE_+0x38>
  400796:	68 04 00 00 00       	pushq  $0x4
  40079b:	e9 a0 ff ff ff       	jmpq   400740 <_init+0x28>

00000000004007a0 <_ZNSt8ios_base4InitD1Ev@plt>:
  4007a0:	ff 25 9a 08 20 00    	jmpq   *0x20089a(%rip)        # 601040 <_GLOBAL_OFFSET_TABLE_+0x40>
  4007a6:	68 05 00 00 00       	pushq  $0x5
  4007ab:	e9 90 ff ff ff       	jmpq   400740 <_init+0x28>

00000000004007b0 <_ZStlsISt11char_traitsIcEERSt13basic_ostreamIcT_ES5_PKc@plt>:
  4007b0:	ff 25 92 08 20 00    	jmpq   *0x200892(%rip)        # 601048 <_GLOBAL_OFFSET_TABLE_+0x48>
  4007b6:	68 06 00 00 00       	pushq  $0x6
  4007bb:	e9 80 ff ff ff       	jmpq   400740 <_init+0x28>

00000000004007c0 <_ZNSolsEPFRSoS_E@plt>:
  4007c0:	ff 25 8a 08 20 00    	jmpq   *0x20088a(%rip)        # 601050 <_GLOBAL_OFFSET_TABLE_+0x50>
  4007c6:	68 07 00 00 00       	pushq  $0x7
  4007cb:	e9 70 ff ff ff       	jmpq   400740 <_init+0x28>

00000000004007d0 <_ZSt4endlIcSt11char_traitsIcEERSt13basic_ostreamIT_T0_ES6_@plt>:
  4007d0:	ff 25 82 08 20 00    	jmpq   *0x200882(%rip)        # 601058 <_GLOBAL_OFFSET_TABLE_+0x58>
  4007d6:	68 08 00 00 00       	pushq  $0x8
  4007db:	e9 60 ff ff ff       	jmpq   400740 <_init+0x28>

Disassembly of section .plt.got:

00000000004007e0 <.plt.got>:
  4007e0:	ff 25 12 08 20 00    	jmpq   *0x200812(%rip)        # 600ff8 <_DYNAMIC+0x1e0>
  4007e6:	66 90                	xchg   %ax,%ax

Disassembly of section .text:

00000000004007f0 <_start>:
  4007f0:	31 ed                	xor    %ebp,%ebp
  4007f2:	49 89 d1             	mov    %rdx,%r9
  4007f5:	5e                   	pop    %rsi
  4007f6:	48 89 e2             	mov    %rsp,%rdx
  4007f9:	48 83 e4 f0          	and    $0xfffffffffffffff0,%rsp
  4007fd:	50                   	push   %rax
  4007fe:	54                   	push   %rsp
  4007ff:	49 c7 c0 70 0b 40 00 	mov    $0x400b70,%r8
  400806:	48 c7 c1 00 0b 40 00 	mov    $0x400b00,%rcx
  40080d:	48 c7 c7 47 0a 40 00 	mov    $0x400a47,%rdi
  400814:	e8 67 ff ff ff       	callq  400780 <__libc_start_main@plt>
  400819:	f4                   	hlt    
  40081a:	66 0f 1f 44 00 00    	nopw   0x0(%rax,%rax,1)

0000000000400820 <deregister_tm_clones>:
  400820:	b8 77 10 60 00       	mov    $0x601077,%eax
  400825:	55                   	push   %rbp
  400826:	48 2d 70 10 60 00    	sub    $0x601070,%rax
  40082c:	48 83 f8 0e          	cmp    $0xe,%rax
  400830:	48 89 e5             	mov    %rsp,%rbp
  400833:	76 1b                	jbe    400850 <deregister_tm_clones+0x30>
  400835:	b8 00 00 00 00       	mov    $0x0,%eax
  40083a:	48 85 c0             	test   %rax,%rax
  40083d:	74 11                	je     400850 <deregister_tm_clones+0x30>
  40083f:	5d                   	pop    %rbp
  400840:	bf 70 10 60 00       	mov    $0x601070,%edi
  400845:	ff e0                	jmpq   *%rax
  400847:	66 0f 1f 84 00 00 00 	nopw   0x0(%rax,%rax,1)
  40084e:	00 00 
  400850:	5d                   	pop    %rbp
  400851:	c3                   	retq   
  400852:	0f 1f 40 00          	nopl   0x0(%rax)
  400856:	66 2e 0f 1f 84 00 00 	nopw   %cs:0x0(%rax,%rax,1)
  40085d:	00 00 00 

0000000000400860 <register_tm_clones>:
  400860:	be 70 10 60 00       	mov    $0x601070,%esi
  400865:	55                   	push   %rbp
  400866:	48 81 ee 70 10 60 00 	sub    $0x601070,%rsi
  40086d:	48 c1 fe 03          	sar    $0x3,%rsi
  400871:	48 89 e5             	mov    %rsp,%rbp
  400874:	48 89 f0             	mov    %rsi,%rax
  400877:	48 c1 e8 3f          	shr    $0x3f,%rax
  40087b:	48 01 c6             	add    %rax,%rsi
  40087e:	48 d1 fe             	sar    %rsi
  400881:	74 15                	je     400898 <register_tm_clones+0x38>
  400883:	b8 00 00 00 00       	mov    $0x0,%eax
  400888:	48 85 c0             	test   %rax,%rax
  40088b:	74 0b                	je     400898 <register_tm_clones+0x38>
  40088d:	5d                   	pop    %rbp
  40088e:	bf 70 10 60 00       	mov    $0x601070,%edi
  400893:	ff e0                	jmpq   *%rax
  400895:	0f 1f 00             	nopl   (%rax)
  400898:	5d                   	pop    %rbp
  400899:	c3                   	retq   
  40089a:	66 0f 1f 44 00 00    	nopw   0x0(%rax,%rax,1)

00000000004008a0 <__do_global_dtors_aux>:
  4008a0:	80 3d e9 08 20 00 00 	cmpb   $0x0,0x2008e9(%rip)        # 601190 <completed.7594>
  4008a7:	75 11                	jne    4008ba <__do_global_dtors_aux+0x1a>
  4008a9:	55                   	push   %rbp
  4008aa:	48 89 e5             	mov    %rsp,%rbp
  4008ad:	e8 6e ff ff ff       	callq  400820 <deregister_tm_clones>
  4008b2:	5d                   	pop    %rbp
  4008b3:	c6 05 d6 08 20 00 01 	movb   $0x1,0x2008d6(%rip)        # 601190 <completed.7594>
  4008ba:	f3 c3                	repz retq 
  4008bc:	0f 1f 40 00          	nopl   0x0(%rax)

00000000004008c0 <frame_dummy>:
  4008c0:	bf 10 0e 60 00       	mov    $0x600e10,%edi
  4008c5:	48 83 3f 00          	cmpq   $0x0,(%rdi)
  4008c9:	75 05                	jne    4008d0 <frame_dummy+0x10>
  4008cb:	eb 93                	jmp    400860 <register_tm_clones>
  4008cd:	0f 1f 00             	nopl   (%rax)
  4008d0:	b8 00 00 00 00       	mov    $0x0,%eax
  4008d5:	48 85 c0             	test   %rax,%rax
  4008d8:	74 f1                	je     4008cb <frame_dummy+0xb>
  4008da:	55                   	push   %rbp
  4008db:	48 89 e5             	mov    %rsp,%rbp
  4008de:	ff d0                	callq  *%rax
  4008e0:	5d                   	pop    %rbp
  4008e1:	e9 7a ff ff ff       	jmpq   400860 <register_tm_clones>

00000000004008e6 <_Z9drawImageiii>:
  4008e6:	55                   	push   %rbp
  4008e7:	48 89 e5             	mov    %rsp,%rbp
  4008ea:	48 83 ec 10          	sub    $0x10,%rsp
  4008ee:	89 7d fc             	mov    %edi,-0x4(%rbp)
  4008f1:	89 75 f8             	mov    %esi,-0x8(%rbp)
  4008f4:	89 55 f4             	mov    %edx,-0xc(%rbp)
  4008f7:	be 84 0b 40 00       	mov    $0x400b84,%esi
  4008fc:	bf 80 10 60 00       	mov    $0x601080,%edi
  400901:	e8 aa fe ff ff       	callq  4007b0 <_ZStlsISt11char_traitsIcEERSt13basic_ostreamIcT_ES5_PKc@plt>
  400906:	be d0 07 40 00       	mov    $0x4007d0,%esi
  40090b:	48 89 c7             	mov    %rax,%rdi
  40090e:	e8 ad fe ff ff       	callq  4007c0 <_ZNSolsEPFRSoS_E@plt>
  400913:	8b 45 fc             	mov    -0x4(%rbp),%eax
  400916:	89 c6                	mov    %eax,%esi
  400918:	bf 80 10 60 00       	mov    $0x601080,%edi
  40091d:	e8 3e fe ff ff       	callq  400760 <_ZNSolsEi@plt>
  400922:	48 89 c2             	mov    %rax,%rdx
  400925:	8b 45 f8             	mov    -0x8(%rbp),%eax
  400928:	89 c6                	mov    %eax,%esi
  40092a:	48 89 d7             	mov    %rdx,%rdi
  40092d:	e8 2e fe ff ff       	callq  400760 <_ZNSolsEi@plt>
  400932:	48 89 c2             	mov    %rax,%rdx
  400935:	8b 45 f4             	mov    -0xc(%rbp),%eax
  400938:	89 c6                	mov    %eax,%esi
  40093a:	48 89 d7             	mov    %rdx,%rdi
  40093d:	e8 1e fe ff ff       	callq  400760 <_ZNSolsEi@plt>
  400942:	be d0 07 40 00       	mov    $0x4007d0,%esi
  400947:	48 89 c7             	mov    %rax,%rdi
  40094a:	e8 71 fe ff ff       	callq  4007c0 <_ZNSolsEPFRSoS_E@plt>
  40094f:	90                   	nop
  400950:	c9                   	leaveq 
  400951:	c3                   	retq   

0000000000400952 <_Z9drawImageiid>:
  400952:	55                   	push   %rbp
  400953:	48 89 e5             	mov    %rsp,%rbp
  400956:	48 83 ec 20          	sub    $0x20,%rsp
  40095a:	89 7d fc             	mov    %edi,-0x4(%rbp)
  40095d:	89 75 f8             	mov    %esi,-0x8(%rbp)
  400960:	f2 0f 11 45 f0       	movsd  %xmm0,-0x10(%rbp)
  400965:	be 9b 0b 40 00       	mov    $0x400b9b,%esi
  40096a:	bf 80 10 60 00       	mov    $0x601080,%edi
  40096f:	e8 3c fe ff ff       	callq  4007b0 <_ZStlsISt11char_traitsIcEERSt13basic_ostreamIcT_ES5_PKc@plt>
  400974:	be d0 07 40 00       	mov    $0x4007d0,%esi
  400979:	48 89 c7             	mov    %rax,%rdi
  40097c:	e8 3f fe ff ff       	callq  4007c0 <_ZNSolsEPFRSoS_E@plt>
  400981:	8b 45 fc             	mov    -0x4(%rbp),%eax
  400984:	89 c6                	mov    %eax,%esi
  400986:	bf 80 10 60 00       	mov    $0x601080,%edi
  40098b:	e8 d0 fd ff ff       	callq  400760 <_ZNSolsEi@plt>
  400990:	48 89 c2             	mov    %rax,%rdx
  400993:	8b 45 f8             	mov    -0x8(%rbp),%eax
  400996:	89 c6                	mov    %eax,%esi
  400998:	48 89 d7             	mov    %rdx,%rdi
  40099b:	e8 c0 fd ff ff       	callq  400760 <_ZNSolsEi@plt>
  4009a0:	48 89 c2             	mov    %rax,%rdx
  4009a3:	48 8b 45 f0          	mov    -0x10(%rbp),%rax
  4009a7:	48 89 45 e8          	mov    %rax,-0x18(%rbp)
  4009ab:	f2 0f 10 45 e8       	movsd  -0x18(%rbp),%xmm0
  4009b0:	48 89 d7             	mov    %rdx,%rdi
  4009b3:	e8 98 fd ff ff       	callq  400750 <_ZNSolsEd@plt>
  4009b8:	be d0 07 40 00       	mov    $0x4007d0,%esi
  4009bd:	48 89 c7             	mov    %rax,%rdi
  4009c0:	e8 fb fd ff ff       	callq  4007c0 <_ZNSolsEPFRSoS_E@plt>
  4009c5:	90                   	nop
  4009c6:	c9                   	leaveq 
  4009c7:	c3                   	retq   

00000000004009c8 <_Z9drawImageiiii>:
  4009c8:	55                   	push   %rbp
  4009c9:	48 89 e5             	mov    %rsp,%rbp
  4009cc:	48 83 ec 10          	sub    $0x10,%rsp
  4009d0:	89 7d fc             	mov    %edi,-0x4(%rbp)
  4009d3:	89 75 f8             	mov    %esi,-0x8(%rbp)
  4009d6:	89 55 f4             	mov    %edx,-0xc(%rbp)
  4009d9:	89 4d f0             	mov    %ecx,-0x10(%rbp)
  4009dc:	be b5 0b 40 00       	mov    $0x400bb5,%esi
  4009e1:	bf 80 10 60 00       	mov    $0x601080,%edi
  4009e6:	e8 c5 fd ff ff       	callq  4007b0 <_ZStlsISt11char_traitsIcEERSt13basic_ostreamIcT_ES5_PKc@plt>
  4009eb:	be d0 07 40 00       	mov    $0x4007d0,%esi
  4009f0:	48 89 c7             	mov    %rax,%rdi
  4009f3:	e8 c8 fd ff ff       	callq  4007c0 <_ZNSolsEPFRSoS_E@plt>
  4009f8:	8b 45 fc             	mov    -0x4(%rbp),%eax
  4009fb:	89 c6                	mov    %eax,%esi
  4009fd:	bf 80 10 60 00       	mov    $0x601080,%edi
  400a02:	e8 59 fd ff ff       	callq  400760 <_ZNSolsEi@plt>
  400a07:	48 89 c2             	mov    %rax,%rdx
  400a0a:	8b 45 f8             	mov    -0x8(%rbp),%eax
  400a0d:	89 c6                	mov    %eax,%esi
  400a0f:	48 89 d7             	mov    %rdx,%rdi
  400a12:	e8 49 fd ff ff       	callq  400760 <_ZNSolsEi@plt>
  400a17:	48 89 c2             	mov    %rax,%rdx
  400a1a:	8b 45 f4             	mov    -0xc(%rbp),%eax
  400a1d:	89 c6                	mov    %eax,%esi
  400a1f:	48 89 d7             	mov    %rdx,%rdi
  400a22:	e8 39 fd ff ff       	callq  400760 <_ZNSolsEi@plt>
  400a27:	48 89 c2             	mov    %rax,%rdx
  400a2a:	8b 45 f0             	mov    -0x10(%rbp),%eax
  400a2d:	89 c6                	mov    %eax,%esi
  400a2f:	48 89 d7             	mov    %rdx,%rdi
  400a32:	e8 29 fd ff ff       	callq  400760 <_ZNSolsEi@plt>
  400a37:	be d0 07 40 00       	mov    $0x4007d0,%esi
  400a3c:	48 89 c7             	mov    %rax,%rdi
  400a3f:	e8 7c fd ff ff       	callq  4007c0 <_ZNSolsEPFRSoS_E@plt>
  400a44:	90                   	nop
  400a45:	c9                   	leaveq 
  400a46:	c3                   	retq   

0000000000400a47 <main>:
  400a47:	55                   	push   %rbp
  400a48:	48 89 e5             	mov    %rsp,%rbp
  400a4b:	48 83 ec 10          	sub    $0x10,%rsp
  400a4f:	ba 03 00 00 00       	mov    $0x3,%edx
  400a54:	be 02 00 00 00       	mov    $0x2,%esi
  400a59:	bf 01 00 00 00       	mov    $0x1,%edi
  400a5e:	e8 83 fe ff ff       	callq  4008e6 <_Z9drawImageiii>
  400a63:	48 b8 1f 85 eb 51 b8 	movabs $0x40091eb851eb851f,%rax
  400a6a:	1e 09 40 
  400a6d:	48 89 45 f8          	mov    %rax,-0x8(%rbp)
  400a71:	f2 0f 10 45 f8       	movsd  -0x8(%rbp),%xmm0
  400a76:	be 02 00 00 00       	mov    $0x2,%esi
  400a7b:	bf 01 00 00 00       	mov    $0x1,%edi
  400a80:	e8 cd fe ff ff       	callq  400952 <_Z9drawImageiid>
  400a85:	b9 04 00 00 00       	mov    $0x4,%ecx
  400a8a:	ba 03 00 00 00       	mov    $0x3,%edx
  400a8f:	be 02 00 00 00       	mov    $0x2,%esi
  400a94:	bf 01 00 00 00       	mov    $0x1,%edi
  400a99:	e8 2a ff ff ff       	callq  4009c8 <_Z9drawImageiiii>
  400a9e:	b8 00 00 00 00       	mov    $0x0,%eax
  400aa3:	c9                   	leaveq 
  400aa4:	c3                   	retq   

0000000000400aa5 <_Z41__static_initialization_and_destruction_0ii>:
  400aa5:	55                   	push   %rbp
  400aa6:	48 89 e5             	mov    %rsp,%rbp
  400aa9:	48 83 ec 10          	sub    $0x10,%rsp
  400aad:	89 7d fc             	mov    %edi,-0x4(%rbp)
  400ab0:	89 75 f8             	mov    %esi,-0x8(%rbp)
  400ab3:	83 7d fc 01          	cmpl   $0x1,-0x4(%rbp)
  400ab7:	75 27                	jne    400ae0 <_Z41__static_initialization_and_destruction_0ii+0x3b>
  400ab9:	81 7d f8 ff ff 00 00 	cmpl   $0xffff,-0x8(%rbp)
  400ac0:	75 1e                	jne    400ae0 <_Z41__static_initialization_and_destruction_0ii+0x3b>
  400ac2:	bf 91 11 60 00       	mov    $0x601191,%edi
  400ac7:	e8 a4 fc ff ff       	callq  400770 <_ZNSt8ios_base4InitC1Ev@plt>
  400acc:	ba 68 10 60 00       	mov    $0x601068,%edx
  400ad1:	be 91 11 60 00       	mov    $0x601191,%esi
  400ad6:	bf a0 07 40 00       	mov    $0x4007a0,%edi
  400adb:	e8 b0 fc ff ff       	callq  400790 <__cxa_atexit@plt>
  400ae0:	90                   	nop
  400ae1:	c9                   	leaveq 
  400ae2:	c3                   	retq   

0000000000400ae3 <_GLOBAL__sub_I__Z9drawImageiii>:
  400ae3:	55                   	push   %rbp
  400ae4:	48 89 e5             	mov    %rsp,%rbp
  400ae7:	be ff ff 00 00       	mov    $0xffff,%esi
  400aec:	bf 01 00 00 00       	mov    $0x1,%edi
  400af1:	e8 af ff ff ff       	callq  400aa5 <_Z41__static_initialization_and_destruction_0ii>
  400af6:	5d                   	pop    %rbp
  400af7:	c3                   	retq   
  400af8:	0f 1f 84 00 00 00 00 	nopl   0x0(%rax,%rax,1)
  400aff:	00 

0000000000400b00 <__libc_csu_init>:
  400b00:	41 57                	push   %r15
  400b02:	41 56                	push   %r14
  400b04:	41 89 ff             	mov    %edi,%r15d
  400b07:	41 55                	push   %r13
  400b09:	41 54                	push   %r12
  400b0b:	4c 8d 25 e6 02 20 00 	lea    0x2002e6(%rip),%r12        # 600df8 <__frame_dummy_init_array_entry>
  400b12:	55                   	push   %rbp
  400b13:	48 8d 2d ee 02 20 00 	lea    0x2002ee(%rip),%rbp        # 600e08 <__init_array_end>
  400b1a:	53                   	push   %rbx
  400b1b:	49 89 f6             	mov    %rsi,%r14
  400b1e:	49 89 d5             	mov    %rdx,%r13
  400b21:	4c 29 e5             	sub    %r12,%rbp
  400b24:	48 83 ec 08          	sub    $0x8,%rsp
  400b28:	48 c1 fd 03          	sar    $0x3,%rbp
  400b2c:	e8 e7 fb ff ff       	callq  400718 <_init>
  400b31:	48 85 ed             	test   %rbp,%rbp
  400b34:	74 20                	je     400b56 <__libc_csu_init+0x56>
  400b36:	31 db                	xor    %ebx,%ebx
  400b38:	0f 1f 84 00 00 00 00 	nopl   0x0(%rax,%rax,1)
  400b3f:	00 
  400b40:	4c 89 ea             	mov    %r13,%rdx
  400b43:	4c 89 f6             	mov    %r14,%rsi
  400b46:	44 89 ff             	mov    %r15d,%edi
  400b49:	41 ff 14 dc          	callq  *(%r12,%rbx,8)
  400b4d:	48 83 c3 01          	add    $0x1,%rbx
  400b51:	48 39 eb             	cmp    %rbp,%rbx
  400b54:	75 ea                	jne    400b40 <__libc_csu_init+0x40>
  400b56:	48 83 c4 08          	add    $0x8,%rsp
  400b5a:	5b                   	pop    %rbx
  400b5b:	5d                   	pop    %rbp
  400b5c:	41 5c                	pop    %r12
  400b5e:	41 5d                	pop    %r13
  400b60:	41 5e                	pop    %r14
  400b62:	41 5f                	pop    %r15
  400b64:	c3                   	retq   
  400b65:	90                   	nop
  400b66:	66 2e 0f 1f 84 00 00 	nopw   %cs:0x0(%rax,%rax,1)
  400b6d:	00 00 00 

0000000000400b70 <__libc_csu_fini>:
  400b70:	f3 c3                	repz retq 

Disassembly of section .fini:

0000000000400b74 <_fini>:
  400b74:	48 83 ec 08          	sub    $0x8,%rsp
  400b78:	48 83 c4 08          	add    $0x8,%rsp
  400b7c:	c3                   	retq   
